; ModuleID = 'bench/opencv/original/tracker_feature.ll'
source_filename = "bench/opencv/original/tracker_feature.ll"
target datalayout = "e-m:e-p270:32:32-p271:32:32-p272:64:64-i64:64-i128:128-f80:128-n8:16:32:64-S128"
target triple = "x86_64-pc-linux-gnu"

@_ZTVN2cv6detail8tracking14TrackerFeatureE = unnamed_addr constant { [5 x ptr] } { [5 x ptr] [ptr null, ptr @_ZTIN2cv6detail8tracking14TrackerFeatureE, ptr @_ZN2cv6detail8tracking14TrackerFeatureD1Ev, ptr @_ZN2cv6detail8tracking14TrackerFeatureD0Ev, ptr @__cxa_pure_virtual] }, align 8
@_ZTIN2cv6detail8tracking14TrackerFeatureE = constant { ptr, ptr } { ptr getelementptr inbounds (ptr, ptr @_ZTVN10__cxxabiv117__class_type_infoE, i64 2), ptr @_ZTSN2cv6detail8tracking14TrackerFeatureE }, align 8
@_ZTVN10__cxxabiv117__class_type_infoE = external global [0 x ptr]
@_ZTSN2cv6detail8tracking14TrackerFeatureE = constant [38 x i8] c"N2cv6detail8tracking14TrackerFeatureE\00", align 1

@_ZN2cv6detail8tracking14TrackerFeatureD1Ev = unnamed_addr alias void (ptr), ptr @_ZN2cv6detail8tracking14TrackerFeatureD2Ev

; Function Attrs: mustprogress nofree norecurse nosync nounwind willreturn memory(none) uwtable
define void @_ZN2cv6detail8tracking14TrackerFeatureD2Ev(ptr nonnull readnone align 8 captures(none) %0) unnamed_addr #0 align 2 {
  ret void
}

; Function Attrs: cold mustprogress noreturn nounwind memory(inaccessiblemem: write) uwtable
define void @_ZN2cv6detail8tracking14TrackerFeatureD0Ev(ptr nonnull readnone align 8 captures(none) %0) unnamed_addr #1 align 2 {
  tail call void @llvm.trap() #4
  unreachable
}

; Function Attrs: cold noreturn nounwind memory(inaccessiblemem: write)
declare void @llvm.trap() #2

; Function Attrs: mustprogress uwtable
define void @_ZN2cv6detail8tracking14TrackerFeature7computeERKSt6vectorINS_3MatESaIS4_EERS4_(ptr noundef nonnull align 8 dereferenceable(8) %0, ptr noundef nonnull align 8 dereferenceable(24) %1, ptr noundef nonnull align 8 dereferenceable(96) %2) local_unnamed_addr #3 align 2 {
  %4 = load ptr, ptr %1, align 8, !tbaa !3
  %5 = getelementptr inbounds nuw i8, ptr %1, i64 8
  %6 = load ptr, ptr %5, align 8, !tbaa !3
  %7 = icmp eq ptr %4, %6
  br i1 %7, label %13, label %8

8:                                                ; preds = %3
  %9 = load ptr, ptr %0, align 8, !tbaa !8
  %10 = getelementptr inbounds nuw i8, ptr %9, i64 16
  %11 = load ptr, ptr %10, align 8
  %12 = tail call noundef zeroext i1 %11(ptr noundef nonnull align 8 dereferenceable(8) %0, ptr noundef nonnull align 8 dereferenceable(24) %1, ptr noundef nonnull align 8 dereferenceable(96) %2)
  br label %13

13:                                               ; preds = %3, %8
  ret void
}

declare void @__cxa_pure_virtual() unnamed_addr


!llvm.module.flags = !{!0, !1, !2}

!0 = !{i32 1, !"wchar_size", i32 4}
!1 = !{i32 8, !"PIC Level", i32 2}
!2 = !{i32 7, !"uwtable", i32 2}
!3 = !{!4, !4, i64 0}
!4 = !{!"p1 _ZTSN2cv3MatE", !5, i64 0}
!5 = !{!"any pointer", !6, i64 0}
!6 = !{!"omnipotent char", !7, i64 0}
!7 = !{!"Simple C++ TBAA"}
!8 = !{!9, !9, i64 0}
!9 = !{!"vtable pointer", !7, i64 0}
